; Function Attrs: mustprogress uwtable
define internal noundef zeroext i1 @_ZNSt17_Function_handlerIFbRKSt6vectorI18cmListFileArgumentSaIS1_EER17cmExecutionStatusEN12_GLOBAL__N_136cmCTestSetDirectoryPropertiesCommandEE9_M_invokeERKSt9_Any_dataS5_S7_(ptr nocapture noundef nonnull readonly align 8 dereferenceable(16) %0, ptr noundef nonnull align 8 dereferenceable(24) %1, ptr noundef nonnull align 8 dereferenceable(80) %2) #3 align 2 personality ptr @__gxx_personality_v0 {
  %4 = alloca %"class.std::vector.11", align 8
  %.val = load ptr, ptr %0, align 8
  call void @llvm.lifetime.start.p0(i64 24, ptr nonnull %4)
  %5 = load ptr, ptr %2, align 8
  call void @llvm.memset.p0.i64(ptr noundef nonnull align 8 dereferenceable(24) %4, i8 0, i64 24, i1 false)
  %6 = invoke noundef zeroext i1 @_ZNK10cmMakefile15ExpandArgumentsERKSt6vectorI18cmListFileArgumentSaIS1_EERS0_INSt7__cxx1112basic_stringIcSt11char_traitsIcESaIcEEESaISB_EE(ptr noundef nonnull align 8 dereferenceable(3520) %5, ptr noundef nonnull align 8 dereferenceable(24) %1, ptr noundef nonnull align 8 dereferenceable(24) %4)
          to label %7 unwind label %8

7:                                                ; preds = %3
  br i1 %6, label %10, label %15

8:                                                ; preds = %10, %3
  %9 = landingpad { ptr, i32 }
          cleanup
  call void @_ZNSt6vectorINSt7__cxx1112basic_stringIcSt11char_traitsIcESaIcEEESaIS5_EED2Ev(ptr noundef nonnull align 8 dereferenceable(24) %4) #25
  resume { ptr, i32 } %9

10:                                               ; preds = %7
  %11 = load ptr, ptr %.val, align 8
  %12 = getelementptr inbounds i8, ptr %11, i64 16
  %13 = load ptr, ptr %12, align 8
  %14 = invoke noundef zeroext i1 %13(ptr noundef nonnull align 8 dereferenceable(16) %.val, ptr noundef nonnull align 8 dereferenceable(24) %4, ptr noundef nonnull align 8 dereferenceable(80) %2)
          to label %15 unwind label %8

15:                                               ; preds = %10, %7
  %.0.i.i.i = phi i1 [ true, %7 ], [ %14, %10 ]
  %16 = load ptr, ptr %4, align 8
  %17 = getelementptr inbounds i8, ptr %4, i64 8
  %18 = load ptr, ptr %17, align 8
  %.not4.i.i.i.i.i.i.i = icmp eq ptr %16, %18
  br i1 %.not4.i.i.i.i.i.i.i, label %_ZSt8_DestroyIPNSt7__cxx1112basic_stringIcSt11char_traitsIcESaIcEEES5_EvT_S7_RSaIT0_E.exit.i.i.i.i, label %.lr.ph.i.i.i.i.i.i.i

.lr.ph.i.i.i.i.i.i.i:                             ; preds = %15, %.lr.ph.i.i.i.i.i.i.i
  %.05.i.i.i.i.i.i.i = phi ptr [ %19, %.lr.ph.i.i.i.i.i.i.i ], [ %16, %15 ]
  call void @_ZNSt7__cxx1112basic_stringIcSt11char_traitsIcESaIcEED1Ev(ptr noundef nonnull align 8 dereferenceable(32) %.05.i.i.i.i.i.i.i) #25
  %19 = getelementptr inbounds i8, ptr %.05.i.i.i.i.i.i.i, i64 32
  %.not.i.i.i.i.i.i.i = icmp eq ptr %19, %18
  br i1 %.not.i.i.i.i.i.i.i, label %_ZSt8_DestroyIPNSt7__cxx1112basic_stringIcSt11char_traitsIcESaIcEEES5_EvT_S7_RSaIT0_E.exitthread-pre-split.i.i.i.i, label %.lr.ph.i.i.i.i.i.i.i, !llvm.loop !8

_ZSt8_DestroyIPNSt7__cxx1112basic_stringIcSt11char_traitsIcESaIcEEES5_EvT_S7_RSaIT0_E.exitthread-pre-split.i.i.i.i: ; preds = %.lr.ph.i.i.i.i.i.i.i
  %.pr.i.i.i.i = load ptr, ptr %4, align 8
  br label %_ZSt8_DestroyIPNSt7__cxx1112basic_stringIcSt11char_traitsIcESaIcEEES5_EvT_S7_RSaIT0_E.exit.i.i.i.i

_ZSt8_DestroyIPNSt7__cxx1112basic_stringIcSt11char_traitsIcESaIcEEES5_EvT_S7_RSaIT0_E.exit.i.i.i.i: ; preds = %_ZSt8_DestroyIPNSt7__cxx1112basic_stringIcSt11char_traitsIcESaIcEEES5_EvT_S7_RSaIT0_E.exitthread-pre-split.i.i.i.i, %15
  %20 = phi ptr [ %.pr.i.i.i.i, %_ZSt8_DestroyIPNSt7__cxx1112basic_stringIcSt11char_traitsIcESaIcEEES5_EvT_S7_RSaIT0_E.exitthread-pre-split.i.i.i.i ], [ %16, %15 ]
  %.not.i.i.i.i.i.i = icmp eq ptr %20, null
  br i1 %.not.i.i.i.i.i.i, label %_ZSt10__invoke_rIbRN12_GLOBAL__N_136cmCTestSetDirectoryPropertiesCommandEJRKSt6vectorI18cmListFileArgumentSaIS4_EER17cmExecutionStatusEENSt9enable_ifIX16is_invocable_r_vIT_T0_DpT1_EESC_E4typeEOSD_DpOSE_.exit, label %21

21:                                               ; preds = %_ZSt8_DestroyIPNSt7__cxx1112basic_stringIcSt11char_traitsIcESaIcEEES5_EvT_S7_RSaIT0_E.exit.i.i.i.i
  call void @_ZdlPv(ptr noundef nonnull %20) #26
  br label %_ZSt10__invoke_rIbRN12_GLOBAL__N_136cmCTestSetDirectoryPropertiesCommandEJRKSt6vectorI18cmListFileArgumentSaIS4_EER17cmExecutionStatusEENSt9enable_ifIX16is_invocable_r_vIT_T0_DpT1_EESC_E4typeEOSD_DpOSE_.exit

_ZSt10__invoke_rIbRN12_GLOBAL__N_136cmCTestSetDirectoryPropertiesCommandEJRKSt6vectorI18cmListFileArgumentSaIS4_EER17cmExecutionStatusEENSt9enable_ifIX16is_invocable_r_vIT_T0_DpT1_EESC_E4typeEOSD_DpOSE_.exit: ; preds = %_ZSt8_DestroyIPNSt7__cxx1112basic_stringIcSt11char_traitsIcESaIcEEES5_EvT_S7_RSaIT0_E.exit.i.i.i.i, %21
  call void @llvm.lifetime.end.p0(i64 24, ptr nonnull %4)
  ret i1 %.0.i.i.i
}